                              1 ;--------------------------------------------------------
                              2 ; File Created by SDCC : free open source ANSI-C Compiler
                              3 ; Version 3.0.0 #6037 (Oct 31 2010) (MINGW32)
                              4 ; This file was generated Fri Jan 22 14:38:59 2016
                              5 ;--------------------------------------------------------
                              6 	.module t6963c
                              7 	.optsdcc -mmcs51 --model-small
                              8 	
                              9 ;--------------------------------------------------------
                             10 ; Public variables in this module
                             11 ;--------------------------------------------------------
                             12 	.globl _T6963C_calculateAddress_PARM_2
                             13 	.globl _T6963C_dataRead
                             14 	.globl _TF1
                             15 	.globl _TR1
                             16 	.globl _TF0
                             17 	.globl _TR0
                             18 	.globl _IE1
                             19 	.globl _IT1
                             20 	.globl _IE0
                             21 	.globl _IT0
                             22 	.globl _SM0
                             23 	.globl _SM1
                             24 	.globl _SM2
                             25 	.globl _REN
                             26 	.globl _TB8
                             27 	.globl _RB8
                             28 	.globl _TI
                             29 	.globl _RI
                             30 	.globl _CY
                             31 	.globl _AC
                             32 	.globl _F0
                             33 	.globl _RS1
                             34 	.globl _RS0
                             35 	.globl _OV
                             36 	.globl _F1
                             37 	.globl _P
                             38 	.globl _RD
                             39 	.globl _WR
                             40 	.globl _T1
                             41 	.globl _T0
                             42 	.globl _INT1
                             43 	.globl _INT0
                             44 	.globl _TXD0
                             45 	.globl _TXD
                             46 	.globl _RXD0
                             47 	.globl _RXD
                             48 	.globl _P3_7
                             49 	.globl _P3_6
                             50 	.globl _P3_5
                             51 	.globl _P3_4
                             52 	.globl _P3_3
                             53 	.globl _P3_2
                             54 	.globl _P3_1
                             55 	.globl _P3_0
                             56 	.globl _P2_7
                             57 	.globl _P2_6
                             58 	.globl _P2_5
                             59 	.globl _P2_4
                             60 	.globl _P2_3
                             61 	.globl _P2_2
                             62 	.globl _P2_1
                             63 	.globl _P2_0
                             64 	.globl _P1_7
                             65 	.globl _P1_6
                             66 	.globl _P1_5
                             67 	.globl _P1_4
                             68 	.globl _P1_3
                             69 	.globl _P1_2
                             70 	.globl _P1_1
                             71 	.globl _P1_0
                             72 	.globl _P0_7
                             73 	.globl _P0_6
                             74 	.globl _P0_5
                             75 	.globl _P0_4
                             76 	.globl _P0_3
                             77 	.globl _P0_2
                             78 	.globl _P0_1
                             79 	.globl _P0_0
                             80 	.globl _PS
                             81 	.globl _PT1
                             82 	.globl _PX1
                             83 	.globl _PT0
                             84 	.globl _PX0
                             85 	.globl _EA
                             86 	.globl _ES
                             87 	.globl _ET1
                             88 	.globl _EX1
                             89 	.globl _ET0
                             90 	.globl _EX0
                             91 	.globl _BREG_F7
                             92 	.globl _BREG_F6
                             93 	.globl _BREG_F5
                             94 	.globl _BREG_F4
                             95 	.globl _BREG_F3
                             96 	.globl _BREG_F2
                             97 	.globl _BREG_F1
                             98 	.globl _BREG_F0
                             99 	.globl _TMOD
                            100 	.globl _TL1
                            101 	.globl _TL0
                            102 	.globl _TH1
                            103 	.globl _TH0
                            104 	.globl _TCON
                            105 	.globl _SP
                            106 	.globl _SCON
                            107 	.globl _SBUF0
                            108 	.globl _SBUF
                            109 	.globl _PSW
                            110 	.globl _PCON
                            111 	.globl _P3
                            112 	.globl _P2
                            113 	.globl _P1
                            114 	.globl _P0
                            115 	.globl _IP
                            116 	.globl _IE
                            117 	.globl _DP0L
                            118 	.globl _DPL
                            119 	.globl _DP0H
                            120 	.globl _DPH
                            121 	.globl _B
                            122 	.globl _ACC
                            123 	.globl _T6963C_readFrom_PARM_2
                            124 	.globl _T6963C_writeAt_PARM_3
                            125 	.globl _T6963C_writeAt_PARM_2
                            126 	.globl _T6963C_autoRepeat_PARM_3
                            127 	.globl _T6963C_autoRepeat_PARM_2
                            128 	.globl _T6963C_autoWrite_PARM_3
                            129 	.globl _T6963C_autoWrite_PARM_2
                            130 	.globl _T6963C_dataWrite_PARM_2
                            131 	.globl _T6963C_addressCommand_PARM_2
                            132 	.globl _T6963C_twoDataCommand_PARM_3
                            133 	.globl _T6963C_twoDataCommand_PARM_2
                            134 	.globl _T6963C_oneDataCommand_PARM_2
                            135 	.globl __t6963c
                            136 	.globl _T6963C_statusCheck
                            137 	.globl _T6963C_noDataCommand
                            138 	.globl _T6963C_oneDataCommand
                            139 	.globl _T6963C_twoDataCommand
                            140 	.globl _T6963C_addressCommand
                            141 	.globl _T6963C_dataWrite
                            142 	.globl _T6963C_statusCheckForAutoWrite
                            143 	.globl _T6963C_autoWrite
                            144 	.globl _T6963C_autoRepeat
                            145 	.globl _T6963C_calculateAddress
                            146 	.globl _T6963C_writeAt
                            147 	.globl _T6963C_readFrom
                            148 	.globl _T6963C_initialize
                            149 ;--------------------------------------------------------
                            150 ; special function registers
                            151 ;--------------------------------------------------------
                            152 	.area RSEG    (ABS,DATA)
   0000                     153 	.org 0x0000
                    00E0    154 _ACC	=	0x00e0
                    00F0    155 _B	=	0x00f0
                    0083    156 _DPH	=	0x0083
                    0083    157 _DP0H	=	0x0083
                    0082    158 _DPL	=	0x0082
                    0082    159 _DP0L	=	0x0082
                    00A8    160 _IE	=	0x00a8
                    00B8    161 _IP	=	0x00b8
                    0080    162 _P0	=	0x0080
                    0090    163 _P1	=	0x0090
                    00A0    164 _P2	=	0x00a0
                    00B0    165 _P3	=	0x00b0
                    0087    166 _PCON	=	0x0087
                    00D0    167 _PSW	=	0x00d0
                    0099    168 _SBUF	=	0x0099
                    0099    169 _SBUF0	=	0x0099
                    0098    170 _SCON	=	0x0098
                    0081    171 _SP	=	0x0081
                    0088    172 _TCON	=	0x0088
                    008C    173 _TH0	=	0x008c
                    008D    174 _TH1	=	0x008d
                    008A    175 _TL0	=	0x008a
                    008B    176 _TL1	=	0x008b
                    0089    177 _TMOD	=	0x0089
                            178 ;--------------------------------------------------------
                            179 ; special function bits
                            180 ;--------------------------------------------------------
                            181 	.area RSEG    (ABS,DATA)
   0000                     182 	.org 0x0000
                    00F0    183 _BREG_F0	=	0x00f0
                    00F1    184 _BREG_F1	=	0x00f1
                    00F2    185 _BREG_F2	=	0x00f2
                    00F3    186 _BREG_F3	=	0x00f3
                    00F4    187 _BREG_F4	=	0x00f4
                    00F5    188 _BREG_F5	=	0x00f5
                    00F6    189 _BREG_F6	=	0x00f6
                    00F7    190 _BREG_F7	=	0x00f7
                    00A8    191 _EX0	=	0x00a8
                    00A9    192 _ET0	=	0x00a9
                    00AA    193 _EX1	=	0x00aa
                    00AB    194 _ET1	=	0x00ab
                    00AC    195 _ES	=	0x00ac
                    00AF    196 _EA	=	0x00af
                    00B8    197 _PX0	=	0x00b8
                    00B9    198 _PT0	=	0x00b9
                    00BA    199 _PX1	=	0x00ba
                    00BB    200 _PT1	=	0x00bb
                    00BC    201 _PS	=	0x00bc
                    0080    202 _P0_0	=	0x0080
                    0081    203 _P0_1	=	0x0081
                    0082    204 _P0_2	=	0x0082
                    0083    205 _P0_3	=	0x0083
                    0084    206 _P0_4	=	0x0084
                    0085    207 _P0_5	=	0x0085
                    0086    208 _P0_6	=	0x0086
                    0087    209 _P0_7	=	0x0087
                    0090    210 _P1_0	=	0x0090
                    0091    211 _P1_1	=	0x0091
                    0092    212 _P1_2	=	0x0092
                    0093    213 _P1_3	=	0x0093
                    0094    214 _P1_4	=	0x0094
                    0095    215 _P1_5	=	0x0095
                    0096    216 _P1_6	=	0x0096
                    0097    217 _P1_7	=	0x0097
                    00A0    218 _P2_0	=	0x00a0
                    00A1    219 _P2_1	=	0x00a1
                    00A2    220 _P2_2	=	0x00a2
                    00A3    221 _P2_3	=	0x00a3
                    00A4    222 _P2_4	=	0x00a4
                    00A5    223 _P2_5	=	0x00a5
                    00A6    224 _P2_6	=	0x00a6
                    00A7    225 _P2_7	=	0x00a7
                    00B0    226 _P3_0	=	0x00b0
                    00B1    227 _P3_1	=	0x00b1
                    00B2    228 _P3_2	=	0x00b2
                    00B3    229 _P3_3	=	0x00b3
                    00B4    230 _P3_4	=	0x00b4
                    00B5    231 _P3_5	=	0x00b5
                    00B6    232 _P3_6	=	0x00b6
                    00B7    233 _P3_7	=	0x00b7
                    00B0    234 _RXD	=	0x00b0
                    00B0    235 _RXD0	=	0x00b0
                    00B1    236 _TXD	=	0x00b1
                    00B1    237 _TXD0	=	0x00b1
                    00B2    238 _INT0	=	0x00b2
                    00B3    239 _INT1	=	0x00b3
                    00B4    240 _T0	=	0x00b4
                    00B5    241 _T1	=	0x00b5
                    00B6    242 _WR	=	0x00b6
                    00B7    243 _RD	=	0x00b7
                    00D0    244 _P	=	0x00d0
                    00D1    245 _F1	=	0x00d1
                    00D2    246 _OV	=	0x00d2
                    00D3    247 _RS0	=	0x00d3
                    00D4    248 _RS1	=	0x00d4
                    00D5    249 _F0	=	0x00d5
                    00D6    250 _AC	=	0x00d6
                    00D7    251 _CY	=	0x00d7
                    0098    252 _RI	=	0x0098
                    0099    253 _TI	=	0x0099
                    009A    254 _RB8	=	0x009a
                    009B    255 _TB8	=	0x009b
                    009C    256 _REN	=	0x009c
                    009D    257 _SM2	=	0x009d
                    009E    258 _SM1	=	0x009e
                    009F    259 _SM0	=	0x009f
                    0088    260 _IT0	=	0x0088
                    0089    261 _IE0	=	0x0089
                    008A    262 _IT1	=	0x008a
                    008B    263 _IE1	=	0x008b
                    008C    264 _TR0	=	0x008c
                    008D    265 _TF0	=	0x008d
                    008E    266 _TR1	=	0x008e
                    008F    267 _TF1	=	0x008f
                            268 ;--------------------------------------------------------
                            269 ; overlayable register banks
                            270 ;--------------------------------------------------------
                            271 	.area REG_BANK_0	(REL,OVR,DATA)
   0000                     272 	.ds 8
                            273 ;--------------------------------------------------------
                            274 ; internal ram data
                            275 ;--------------------------------------------------------
                            276 	.area DSEG    (DATA)
   0000                     277 __t6963c::
   0000                     278 	.ds 3
   0003                     279 _T6963C_oneDataCommand_PARM_2:
   0003                     280 	.ds 1
   0004                     281 _T6963C_twoDataCommand_PARM_2:
   0004                     282 	.ds 1
   0005                     283 _T6963C_twoDataCommand_PARM_3:
   0005                     284 	.ds 1
   0006                     285 _T6963C_addressCommand_PARM_2:
   0006                     286 	.ds 2
   0008                     287 _T6963C_dataWrite_PARM_2:
   0008                     288 	.ds 1
   0009                     289 _T6963C_autoWrite_PARM_2:
   0009                     290 	.ds 3
   000C                     291 _T6963C_autoWrite_PARM_3:
   000C                     292 	.ds 2
   000E                     293 _T6963C_autoWrite_n_1_1:
   000E                     294 	.ds 2
   0010                     295 _T6963C_autoRepeat_PARM_2:
   0010                     296 	.ds 1
   0011                     297 _T6963C_autoRepeat_PARM_3:
   0011                     298 	.ds 2
   0013                     299 _T6963C_writeAt_PARM_2:
   0013                     300 	.ds 1
   0014                     301 _T6963C_writeAt_PARM_3:
   0014                     302 	.ds 1
   0015                     303 _T6963C_readFrom_PARM_2:
   0015                     304 	.ds 1
                            305 ;--------------------------------------------------------
                            306 ; overlayable items in internal ram 
                            307 ;--------------------------------------------------------
                            308 	.area	OSEG    (OVR,DATA)
                            309 	.area	OSEG    (OVR,DATA)
                            310 	.area	OSEG    (OVR,DATA)
   0000                     311 _T6963C_calculateAddress_PARM_2::
   0000                     312 	.ds 1
                            313 ;--------------------------------------------------------
                            314 ; indirectly addressable internal ram data
                            315 ;--------------------------------------------------------
                            316 	.area ISEG    (DATA)
                            317 ;--------------------------------------------------------
                            318 ; absolute internal ram data
                            319 ;--------------------------------------------------------
                            320 	.area IABS    (ABS,DATA)
                            321 	.area IABS    (ABS,DATA)
                            322 ;--------------------------------------------------------
                            323 ; bit data
                            324 ;--------------------------------------------------------
                            325 	.area BSEG    (BIT)
                            326 ;--------------------------------------------------------
                            327 ; paged external ram data
                            328 ;--------------------------------------------------------
                            329 	.area PSEG    (PAG,XDATA)
                            330 ;--------------------------------------------------------
                            331 ; external ram data
                            332 ;--------------------------------------------------------
                            333 	.area XSEG    (XDATA)
                            334 ;--------------------------------------------------------
                            335 ; absolute external ram data
                            336 ;--------------------------------------------------------
                            337 	.area XABS    (ABS,XDATA)
                            338 ;--------------------------------------------------------
                            339 ; external initialized ram data
                            340 ;--------------------------------------------------------
                            341 	.area XISEG   (XDATA)
                            342 	.area HOME    (CODE)
                            343 	.area GSINIT0 (CODE)
                            344 	.area GSINIT1 (CODE)
                            345 	.area GSINIT2 (CODE)
                            346 	.area GSINIT3 (CODE)
                            347 	.area GSINIT4 (CODE)
                            348 	.area GSINIT5 (CODE)
                            349 	.area GSINIT  (CODE)
                            350 	.area GSFINAL (CODE)
                            351 	.area CSEG    (CODE)
                            352 ;--------------------------------------------------------
                            353 ; global & static initialisations
                            354 ;--------------------------------------------------------
                            355 	.area HOME    (CODE)
                            356 	.area GSINIT  (CODE)
                            357 	.area GSFINAL (CODE)
                            358 	.area GSINIT  (CODE)
                            359 ;	../t6963c.c:4: unsigned char *_t6963c = (unsigned char __xdata *) 0x2000;
   0000 75*00 00            360 	mov	__t6963c,#0x00
   0003 75*01 20            361 	mov	(__t6963c + 1),#0x20
   0006 75*02 00            362 	mov	(__t6963c + 2),#0x00
                            363 ;--------------------------------------------------------
                            364 ; Home
                            365 ;--------------------------------------------------------
                            366 	.area HOME    (CODE)
                            367 	.area HOME    (CODE)
                            368 ;--------------------------------------------------------
                            369 ; code
                            370 ;--------------------------------------------------------
                            371 	.area CSEG    (CODE)
                            372 ;------------------------------------------------------------
                            373 ;Allocation info for local variables in function 'T6963C_statusCheck'
                            374 ;------------------------------------------------------------
                            375 ;status                    Allocated to registers r2 
                            376 ;------------------------------------------------------------
                            377 ;	../t6963c.c:21: void T6963C_statusCheck() {
                            378 ;	-----------------------------------------
                            379 ;	 function T6963C_statusCheck
                            380 ;	-----------------------------------------
   0000                     381 _T6963C_statusCheck:
                    0002    382 	ar2 = 0x02
                    0003    383 	ar3 = 0x03
                    0004    384 	ar4 = 0x04
                    0005    385 	ar5 = 0x05
                    0006    386 	ar6 = 0x06
                    0007    387 	ar7 = 0x07
                    0000    388 	ar0 = 0x00
                    0001    389 	ar1 = 0x01
                            390 ;	../t6963c.c:23: do {
   0000                     391 00101$:
                            392 ;	../t6963c.c:24: status = _t6963c[CD_COMMAND];
   0000 74 01               393 	mov	a,#0x01
   0002 25*00               394 	add	a,__t6963c
   0004 FA                  395 	mov	r2,a
   0005 E4                  396 	clr	a
   0006 35*01               397 	addc	a,(__t6963c + 1)
   0008 FB                  398 	mov	r3,a
   0009 AC*02               399 	mov	r4,(__t6963c + 2)
   000B 8A 82               400 	mov	dpl,r2
   000D 8B 83               401 	mov	dph,r3
   000F 8C F0               402 	mov	b,r4
   0011 12s00r00            403 	lcall	__gptrget
   0014 FA                  404 	mov	r2,a
                            405 ;	../t6963c.c:25: status &= STA0_STA1;
   0015 53 02 03            406 	anl	ar2,#0x03
                            407 ;	../t6963c.c:26: } while (status != STA0_STA1);
   0018 BA 03 E5            408 	cjne	r2,#0x03,00101$
   001B 22                  409 	ret
                            410 ;------------------------------------------------------------
                            411 ;Allocation info for local variables in function 'T6963C_noDataCommand'
                            412 ;------------------------------------------------------------
                            413 ;command                   Allocated to registers r2 
                            414 ;------------------------------------------------------------
                            415 ;	../t6963c.c:33: void T6963C_noDataCommand(unsigned char command) {
                            416 ;	-----------------------------------------
                            417 ;	 function T6963C_noDataCommand
                            418 ;	-----------------------------------------
   001C                     419 _T6963C_noDataCommand:
   001C AA 82               420 	mov	r2,dpl
                            421 ;	../t6963c.c:34: T6963C_statusCheck();
   001E C0 02               422 	push	ar2
   0020 12s00r00            423 	lcall	_T6963C_statusCheck
   0023 D0 02               424 	pop	ar2
                            425 ;	../t6963c.c:35: _t6963c[CD_COMMAND] = command;
   0025 74 01               426 	mov	a,#0x01
   0027 25*00               427 	add	a,__t6963c
   0029 FB                  428 	mov	r3,a
   002A E4                  429 	clr	a
   002B 35*01               430 	addc	a,(__t6963c + 1)
   002D FC                  431 	mov	r4,a
   002E AD*02               432 	mov	r5,(__t6963c + 2)
   0030 8B 82               433 	mov	dpl,r3
   0032 8C 83               434 	mov	dph,r4
   0034 8D F0               435 	mov	b,r5
   0036 EA                  436 	mov	a,r2
   0037 02s00r00            437 	ljmp	__gptrput
                            438 ;------------------------------------------------------------
                            439 ;Allocation info for local variables in function 'T6963C_oneDataCommand'
                            440 ;------------------------------------------------------------
                            441 ;data1                     Allocated with name '_T6963C_oneDataCommand_PARM_2'
                            442 ;command                   Allocated to registers r2 
                            443 ;------------------------------------------------------------
                            444 ;	../t6963c.c:43: void T6963C_oneDataCommand(unsigned char command, unsigned char data1) {
                            445 ;	-----------------------------------------
                            446 ;	 function T6963C_oneDataCommand
                            447 ;	-----------------------------------------
   003A                     448 _T6963C_oneDataCommand:
   003A AA 82               449 	mov	r2,dpl
                            450 ;	../t6963c.c:44: T6963C_statusCheck();
   003C C0 02               451 	push	ar2
   003E 12s00r00            452 	lcall	_T6963C_statusCheck
                            453 ;	../t6963c.c:45: _t6963c[CD_DATA] = data1;
   0041 AB*00               454 	mov	r3,__t6963c
   0043 AC*01               455 	mov	r4,(__t6963c + 1)
   0045 AD*02               456 	mov	r5,(__t6963c + 2)
   0047 8B 82               457 	mov	dpl,r3
   0049 8C 83               458 	mov	dph,r4
   004B 8D F0               459 	mov	b,r5
   004D E5*03               460 	mov	a,_T6963C_oneDataCommand_PARM_2
   004F 12s00r00            461 	lcall	__gptrput
                            462 ;	../t6963c.c:46: T6963C_statusCheck();
   0052 12s00r00            463 	lcall	_T6963C_statusCheck
   0055 D0 02               464 	pop	ar2
                            465 ;	../t6963c.c:47: _t6963c[CD_COMMAND] = command;
   0057 74 01               466 	mov	a,#0x01
   0059 25*00               467 	add	a,__t6963c
   005B FB                  468 	mov	r3,a
   005C E4                  469 	clr	a
   005D 35*01               470 	addc	a,(__t6963c + 1)
   005F FC                  471 	mov	r4,a
   0060 AD*02               472 	mov	r5,(__t6963c + 2)
   0062 8B 82               473 	mov	dpl,r3
   0064 8C 83               474 	mov	dph,r4
   0066 8D F0               475 	mov	b,r5
   0068 EA                  476 	mov	a,r2
   0069 02s00r00            477 	ljmp	__gptrput
                            478 ;------------------------------------------------------------
                            479 ;Allocation info for local variables in function 'T6963C_twoDataCommand'
                            480 ;------------------------------------------------------------
                            481 ;data1                     Allocated with name '_T6963C_twoDataCommand_PARM_2'
                            482 ;data2                     Allocated with name '_T6963C_twoDataCommand_PARM_3'
                            483 ;command                   Allocated to registers r2 
                            484 ;------------------------------------------------------------
                            485 ;	../t6963c.c:56: void T6963C_twoDataCommand(unsigned char command, 
                            486 ;	-----------------------------------------
                            487 ;	 function T6963C_twoDataCommand
                            488 ;	-----------------------------------------
   006C                     489 _T6963C_twoDataCommand:
   006C AA 82               490 	mov	r2,dpl
                            491 ;	../t6963c.c:59: T6963C_statusCheck();
   006E C0 02               492 	push	ar2
   0070 12s00r00            493 	lcall	_T6963C_statusCheck
                            494 ;	../t6963c.c:60: _t6963c[CD_DATA] = data1;
   0073 AB*00               495 	mov	r3,__t6963c
   0075 AC*01               496 	mov	r4,(__t6963c + 1)
   0077 AD*02               497 	mov	r5,(__t6963c + 2)
   0079 8B 82               498 	mov	dpl,r3
   007B 8C 83               499 	mov	dph,r4
   007D 8D F0               500 	mov	b,r5
   007F E5*04               501 	mov	a,_T6963C_twoDataCommand_PARM_2
   0081 12s00r00            502 	lcall	__gptrput
                            503 ;	../t6963c.c:61: T6963C_statusCheck();
   0084 12s00r00            504 	lcall	_T6963C_statusCheck
                            505 ;	../t6963c.c:62: _t6963c[CD_DATA] = data2;
   0087 AB*00               506 	mov	r3,__t6963c
   0089 AC*01               507 	mov	r4,(__t6963c + 1)
   008B AD*02               508 	mov	r5,(__t6963c + 2)
   008D 8B 82               509 	mov	dpl,r3
   008F 8C 83               510 	mov	dph,r4
   0091 8D F0               511 	mov	b,r5
   0093 E5*05               512 	mov	a,_T6963C_twoDataCommand_PARM_3
   0095 12s00r00            513 	lcall	__gptrput
                            514 ;	../t6963c.c:63: T6963C_statusCheck();
   0098 12s00r00            515 	lcall	_T6963C_statusCheck
   009B D0 02               516 	pop	ar2
                            517 ;	../t6963c.c:64: _t6963c[CD_COMMAND] = command;
   009D 74 01               518 	mov	a,#0x01
   009F 25*00               519 	add	a,__t6963c
   00A1 FB                  520 	mov	r3,a
   00A2 E4                  521 	clr	a
   00A3 35*01               522 	addc	a,(__t6963c + 1)
   00A5 FC                  523 	mov	r4,a
   00A6 AD*02               524 	mov	r5,(__t6963c + 2)
   00A8 8B 82               525 	mov	dpl,r3
   00AA 8C 83               526 	mov	dph,r4
   00AC 8D F0               527 	mov	b,r5
   00AE EA                  528 	mov	a,r2
   00AF 02s00r00            529 	ljmp	__gptrput
                            530 ;------------------------------------------------------------
                            531 ;Allocation info for local variables in function 'T6963C_addressCommand'
                            532 ;------------------------------------------------------------
                            533 ;address                   Allocated with name '_T6963C_addressCommand_PARM_2'
                            534 ;command                   Allocated to registers r2 
                            535 ;b                         Allocated to registers 
                            536 ;------------------------------------------------------------
                            537 ;	../t6963c.c:72: void T6963C_addressCommand(unsigned char command, 
                            538 ;	-----------------------------------------
                            539 ;	 function T6963C_addressCommand
                            540 ;	-----------------------------------------
   00B2                     541 _T6963C_addressCommand:
   00B2 AA 82               542 	mov	r2,dpl
                            543 ;	../t6963c.c:74: unsigned char *b = (unsigned char *) &address;
                            544 ;	../t6963c.c:75: T6963C_statusCheck();
   00B4 C0 02               545 	push	ar2
   00B6 12s00r00            546 	lcall	_T6963C_statusCheck
                            547 ;	../t6963c.c:76: _t6963c[CD_DATA] = b[0];
   00B9 AB*00               548 	mov	r3,__t6963c
   00BB AC*01               549 	mov	r4,(__t6963c + 1)
   00BD AD*02               550 	mov	r5,(__t6963c + 2)
   00BF AE*06               551 	mov	r6,_T6963C_addressCommand_PARM_2
   00C1 8B 82               552 	mov	dpl,r3
   00C3 8C 83               553 	mov	dph,r4
   00C5 8D F0               554 	mov	b,r5
   00C7 EE                  555 	mov	a,r6
   00C8 12s00r00            556 	lcall	__gptrput
                            557 ;	../t6963c.c:77: T6963C_statusCheck();
   00CB 12s00r00            558 	lcall	_T6963C_statusCheck
                            559 ;	../t6963c.c:78: _t6963c[CD_DATA] = b[1];
   00CE AB*00               560 	mov	r3,__t6963c
   00D0 AC*01               561 	mov	r4,(__t6963c + 1)
   00D2 AD*02               562 	mov	r5,(__t6963c + 2)
   00D4 90s00r07            563 	mov	dptr,#(_T6963C_addressCommand_PARM_2 + 0x0001)
   00D7 75 F0 40            564 	mov	b,#0x40
   00DA 12s00r00            565 	lcall	__gptrget
   00DD 8B 82               566 	mov	dpl,r3
   00DF 8C 83               567 	mov	dph,r4
   00E1 8D F0               568 	mov	b,r5
   00E3 12s00r00            569 	lcall	__gptrput
                            570 ;	../t6963c.c:79: T6963C_statusCheck();
   00E6 12s00r00            571 	lcall	_T6963C_statusCheck
   00E9 D0 02               572 	pop	ar2
                            573 ;	../t6963c.c:80: _t6963c[CD_COMMAND] = command;
   00EB 74 01               574 	mov	a,#0x01
   00ED 25*00               575 	add	a,__t6963c
   00EF FB                  576 	mov	r3,a
   00F0 E4                  577 	clr	a
   00F1 35*01               578 	addc	a,(__t6963c + 1)
   00F3 FC                  579 	mov	r4,a
   00F4 AD*02               580 	mov	r5,(__t6963c + 2)
   00F6 8B 82               581 	mov	dpl,r3
   00F8 8C 83               582 	mov	dph,r4
   00FA 8D F0               583 	mov	b,r5
   00FC EA                  584 	mov	a,r2
   00FD 02s00r00            585 	ljmp	__gptrput
                            586 ;------------------------------------------------------------
                            587 ;Allocation info for local variables in function 'T6963C_dataWrite'
                            588 ;------------------------------------------------------------
                            589 ;data1                     Allocated with name '_T6963C_dataWrite_PARM_2'
                            590 ;address                   Allocated to registers 
                            591 ;------------------------------------------------------------
                            592 ;	../t6963c.c:89: void T6963C_dataWrite(unsigned int address,unsigned char data1) {
                            593 ;	-----------------------------------------
                            594 ;	 function T6963C_dataWrite
                            595 ;	-----------------------------------------
   0100                     596 _T6963C_dataWrite:
   0100 85 82*06            597 	mov	_T6963C_addressCommand_PARM_2,dpl
   0103 85 83*07            598 	mov	(_T6963C_addressCommand_PARM_2 + 1),dph
                            599 ;	../t6963c.c:90: T6963C_addressCommand(0x24,address);
   0106 75 82 24            600 	mov	dpl,#0x24
   0109 12s00rB2            601 	lcall	_T6963C_addressCommand
                            602 ;	../t6963c.c:91: T6963C_oneDataCommand(0xC0,data1);
   010C 85*08*03            603 	mov	_T6963C_oneDataCommand_PARM_2,_T6963C_dataWrite_PARM_2
   010F 75 82 C0            604 	mov	dpl,#0xC0
   0112 02s00r3A            605 	ljmp	_T6963C_oneDataCommand
                            606 ;------------------------------------------------------------
                            607 ;Allocation info for local variables in function 'T6963C_dataRead'
                            608 ;------------------------------------------------------------
                            609 ;address                   Allocated to registers 
                            610 ;------------------------------------------------------------
                            611 ;	../t6963c.c:99: unsigned char T6963C_dataRead(unsigned int address) {
                            612 ;	-----------------------------------------
                            613 ;	 function T6963C_dataRead
                            614 ;	-----------------------------------------
   0115                     615 _T6963C_dataRead:
   0115 85 82*06            616 	mov	_T6963C_addressCommand_PARM_2,dpl
   0118 85 83*07            617 	mov	(_T6963C_addressCommand_PARM_2 + 1),dph
                            618 ;	../t6963c.c:100: T6963C_addressCommand(0x24,address);
   011B 75 82 24            619 	mov	dpl,#0x24
   011E 12s00rB2            620 	lcall	_T6963C_addressCommand
                            621 ;	../t6963c.c:101: T6963C_noDataCommand(0xC1);
   0121 75 82 C1            622 	mov	dpl,#0xC1
   0124 12s00r1C            623 	lcall	_T6963C_noDataCommand
                            624 ;	../t6963c.c:102: return _t6963c[CD_DATA];
   0127 AA*00               625 	mov	r2,__t6963c
   0129 AB*01               626 	mov	r3,(__t6963c + 1)
   012B AC*02               627 	mov	r4,(__t6963c + 2)
   012D 8A 82               628 	mov	dpl,r2
   012F 8B 83               629 	mov	dph,r3
   0131 8C F0               630 	mov	b,r4
   0133 12s00r00            631 	lcall	__gptrget
   0136 F5 82               632 	mov	dpl,a
   0138 22                  633 	ret
                            634 ;------------------------------------------------------------
                            635 ;Allocation info for local variables in function 'T6963C_statusCheckForAutoWrite'
                            636 ;------------------------------------------------------------
                            637 ;status                    Allocated to registers r2 
                            638 ;------------------------------------------------------------
                            639 ;	../t6963c.c:108: void T6963C_statusCheckForAutoWrite() {
                            640 ;	-----------------------------------------
                            641 ;	 function T6963C_statusCheckForAutoWrite
                            642 ;	-----------------------------------------
   0139                     643 _T6963C_statusCheckForAutoWrite:
                            644 ;	../t6963c.c:110: do {
   0139                     645 00101$:
                            646 ;	../t6963c.c:111: status = _t6963c[CD_COMMAND];  // Pour activer C
   0139 74 01               647 	mov	a,#0x01
   013B 25*00               648 	add	a,__t6963c
   013D FA                  649 	mov	r2,a
   013E E4                  650 	clr	a
   013F 35*01               651 	addc	a,(__t6963c + 1)
   0141 FB                  652 	mov	r3,a
   0142 AC*02               653 	mov	r4,(__t6963c + 2)
   0144 8A 82               654 	mov	dpl,r2
   0146 8B 83               655 	mov	dph,r3
   0148 8C F0               656 	mov	b,r4
   014A 12s00r00            657 	lcall	__gptrget
   014D FA                  658 	mov	r2,a
                            659 ;	../t6963c.c:112: status &= STA_3;          // Vérifie STA3
   014E 53 02 08            660 	anl	ar2,#0x08
                            661 ;	../t6963c.c:113: } while (status != STA_3);
   0151 BA 08 E5            662 	cjne	r2,#0x08,00101$
   0154 22                  663 	ret
                            664 ;------------------------------------------------------------
                            665 ;Allocation info for local variables in function 'T6963C_autoWrite'
                            666 ;------------------------------------------------------------
                            667 ;data1                     Allocated with name '_T6963C_autoWrite_PARM_2'
                            668 ;size                      Allocated with name '_T6963C_autoWrite_PARM_3'
                            669 ;address                   Allocated to registers r2 r3 
                            670 ;n                         Allocated with name '_T6963C_autoWrite_n_1_1'
                            671 ;------------------------------------------------------------
                            672 ;	../t6963c.c:124: unsigned int T6963C_autoWrite(unsigned int address, 
                            673 ;	-----------------------------------------
                            674 ;	 function T6963C_autoWrite
                            675 ;	-----------------------------------------
   0155                     676 _T6963C_autoWrite:
   0155 AA 82               677 	mov	r2,dpl
   0157 AB 83               678 	mov	r3,dph
                            679 ;	../t6963c.c:128: T6963C_addressCommand(0x24, address);
   0159 8A*06               680 	mov	_T6963C_addressCommand_PARM_2,r2
   015B 8B*07               681 	mov	(_T6963C_addressCommand_PARM_2 + 1),r3
   015D 75 82 24            682 	mov	dpl,#0x24
   0160 C0 02               683 	push	ar2
   0162 C0 03               684 	push	ar3
   0164 12s00rB2            685 	lcall	_T6963C_addressCommand
                            686 ;	../t6963c.c:129: T6963C_noDataCommand(0xB0);
   0167 75 82 B0            687 	mov	dpl,#0xB0
   016A 12s00r1C            688 	lcall	_T6963C_noDataCommand
   016D D0 03               689 	pop	ar3
   016F D0 02               690 	pop	ar2
                            691 ;	../t6963c.c:130: for(n=0 ; n<size ; n++) {
   0171 E4                  692 	clr	a
   0172 F5*0E               693 	mov	_T6963C_autoWrite_n_1_1,a
   0174 F5*0F               694 	mov	(_T6963C_autoWrite_n_1_1 + 1),a
   0176                     695 00101$:
   0176 C3                  696 	clr	c
   0177 E5*0E               697 	mov	a,_T6963C_autoWrite_n_1_1
   0179 95*0C               698 	subb	a,_T6963C_autoWrite_PARM_3
   017B E5*0F               699 	mov	a,(_T6963C_autoWrite_n_1_1 + 1)
   017D 95*0D               700 	subb	a,(_T6963C_autoWrite_PARM_3 + 1)
   017F 50 3F               701 	jnc	00104$
                            702 ;	../t6963c.c:131: address++;
   0181 0A                  703 	inc	r2
   0182 BA 00 01            704 	cjne	r2,#0x00,00111$
   0185 0B                  705 	inc	r3
   0186                     706 00111$:
                            707 ;	../t6963c.c:132: T6963C_statusCheckForAutoWrite();
   0186 C0 02               708 	push	ar2
   0188 C0 03               709 	push	ar3
   018A 12s01r39            710 	lcall	_T6963C_statusCheckForAutoWrite
   018D D0 03               711 	pop	ar3
   018F D0 02               712 	pop	ar2
                            713 ;	../t6963c.c:133: _t6963c[CD_DATA] = data1[n];
   0191 AE*00               714 	mov	r6,__t6963c
   0193 AF*01               715 	mov	r7,(__t6963c + 1)
   0195 A8*02               716 	mov	r0,(__t6963c + 2)
   0197 E5*0E               717 	mov	a,_T6963C_autoWrite_n_1_1
   0199 25*09               718 	add	a,_T6963C_autoWrite_PARM_2
   019B F9                  719 	mov	r1,a
   019C E5*0F               720 	mov	a,(_T6963C_autoWrite_n_1_1 + 1)
   019E 35*0A               721 	addc	a,(_T6963C_autoWrite_PARM_2 + 1)
   01A0 FC                  722 	mov	r4,a
   01A1 AD*0B               723 	mov	r5,(_T6963C_autoWrite_PARM_2 + 2)
   01A3 89 82               724 	mov	dpl,r1
   01A5 8C 83               725 	mov	dph,r4
   01A7 8D F0               726 	mov	b,r5
   01A9 12s00r00            727 	lcall	__gptrget
   01AC F9                  728 	mov	r1,a
   01AD 8E 82               729 	mov	dpl,r6
   01AF 8F 83               730 	mov	dph,r7
   01B1 88 F0               731 	mov	b,r0
   01B3 12s00r00            732 	lcall	__gptrput
                            733 ;	../t6963c.c:130: for(n=0 ; n<size ; n++) {
   01B6 05*0E               734 	inc	_T6963C_autoWrite_n_1_1
   01B8 E4                  735 	clr	a
   01B9 B5*0E BA            736 	cjne	a,_T6963C_autoWrite_n_1_1,00101$
   01BC 05*0F               737 	inc	(_T6963C_autoWrite_n_1_1 + 1)
   01BE 80 B6               738 	sjmp	00101$
   01C0                     739 00104$:
                            740 ;	../t6963c.c:135: T6963C_noDataCommand(0xB2);
   01C0 75 82 B2            741 	mov	dpl,#0xB2
   01C3 C0 02               742 	push	ar2
   01C5 C0 03               743 	push	ar3
   01C7 12s00r1C            744 	lcall	_T6963C_noDataCommand
   01CA D0 03               745 	pop	ar3
   01CC D0 02               746 	pop	ar2
                            747 ;	../t6963c.c:136: return address;
   01CE 8A 82               748 	mov	dpl,r2
   01D0 8B 83               749 	mov	dph,r3
   01D2 22                  750 	ret
                            751 ;------------------------------------------------------------
                            752 ;Allocation info for local variables in function 'T6963C_autoRepeat'
                            753 ;------------------------------------------------------------
                            754 ;data1                     Allocated with name '_T6963C_autoRepeat_PARM_2'
                            755 ;repeats                   Allocated with name '_T6963C_autoRepeat_PARM_3'
                            756 ;address                   Allocated to registers r2 r3 
                            757 ;n                         Allocated to registers r4 r5 
                            758 ;------------------------------------------------------------
                            759 ;	../t6963c.c:146: unsigned int T6963C_autoRepeat(unsigned int address, 
                            760 ;	-----------------------------------------
                            761 ;	 function T6963C_autoRepeat
                            762 ;	-----------------------------------------
   01D3                     763 _T6963C_autoRepeat:
   01D3 AA 82               764 	mov	r2,dpl
   01D5 AB 83               765 	mov	r3,dph
                            766 ;	../t6963c.c:150: T6963C_addressCommand(0x24, address);
   01D7 8A*06               767 	mov	_T6963C_addressCommand_PARM_2,r2
   01D9 8B*07               768 	mov	(_T6963C_addressCommand_PARM_2 + 1),r3
   01DB 75 82 24            769 	mov	dpl,#0x24
   01DE C0 02               770 	push	ar2
   01E0 C0 03               771 	push	ar3
   01E2 12s00rB2            772 	lcall	_T6963C_addressCommand
                            773 ;	../t6963c.c:151: T6963C_noDataCommand(0xB0);
   01E5 75 82 B0            774 	mov	dpl,#0xB0
   01E8 12s00r1C            775 	lcall	_T6963C_noDataCommand
   01EB D0 03               776 	pop	ar3
   01ED D0 02               777 	pop	ar2
                            778 ;	../t6963c.c:152: for(n=0 ; n<repeats ; n++) {
   01EF 7C 00               779 	mov	r4,#0x00
   01F1 7D 00               780 	mov	r5,#0x00
   01F3                     781 00101$:
   01F3 C3                  782 	clr	c
   01F4 EC                  783 	mov	a,r4
   01F5 95*11               784 	subb	a,_T6963C_autoRepeat_PARM_3
   01F7 ED                  785 	mov	a,r5
   01F8 95*12               786 	subb	a,(_T6963C_autoRepeat_PARM_3 + 1)
   01FA 50 30               787 	jnc	00104$
                            788 ;	../t6963c.c:153: address++;
   01FC 0A                  789 	inc	r2
   01FD BA 00 01            790 	cjne	r2,#0x00,00111$
   0200 0B                  791 	inc	r3
   0201                     792 00111$:
                            793 ;	../t6963c.c:154: T6963C_statusCheckForAutoWrite();
   0201 C0 02               794 	push	ar2
   0203 C0 03               795 	push	ar3
   0205 C0 04               796 	push	ar4
   0207 C0 05               797 	push	ar5
   0209 12s01r39            798 	lcall	_T6963C_statusCheckForAutoWrite
   020C D0 05               799 	pop	ar5
   020E D0 04               800 	pop	ar4
   0210 D0 03               801 	pop	ar3
   0212 D0 02               802 	pop	ar2
                            803 ;	../t6963c.c:155: _t6963c[CD_DATA] = data1;
   0214 AE*00               804 	mov	r6,__t6963c
   0216 AF*01               805 	mov	r7,(__t6963c + 1)
   0218 A8*02               806 	mov	r0,(__t6963c + 2)
   021A 8E 82               807 	mov	dpl,r6
   021C 8F 83               808 	mov	dph,r7
   021E 88 F0               809 	mov	b,r0
   0220 E5*10               810 	mov	a,_T6963C_autoRepeat_PARM_2
   0222 12s00r00            811 	lcall	__gptrput
                            812 ;	../t6963c.c:152: for(n=0 ; n<repeats ; n++) {
   0225 0C                  813 	inc	r4
   0226 BC 00 CA            814 	cjne	r4,#0x00,00101$
   0229 0D                  815 	inc	r5
   022A 80 C7               816 	sjmp	00101$
   022C                     817 00104$:
                            818 ;	../t6963c.c:157: T6963C_noDataCommand(0xB2);
   022C 75 82 B2            819 	mov	dpl,#0xB2
   022F C0 02               820 	push	ar2
   0231 C0 03               821 	push	ar3
   0233 12s00r1C            822 	lcall	_T6963C_noDataCommand
   0236 D0 03               823 	pop	ar3
   0238 D0 02               824 	pop	ar2
                            825 ;	../t6963c.c:158: return address;
   023A 8A 82               826 	mov	dpl,r2
   023C 8B 83               827 	mov	dph,r3
   023E 22                  828 	ret
                            829 ;------------------------------------------------------------
                            830 ;Allocation info for local variables in function 'T6963C_calculateAddress'
                            831 ;------------------------------------------------------------
                            832 ;y                         Allocated with name '_T6963C_calculateAddress_PARM_2'
                            833 ;x                         Allocated to registers r2 
                            834 ;------------------------------------------------------------
                            835 ;	../t6963c.c:167: unsigned int T6963C_calculateAddress(unsigned char x, 
                            836 ;	-----------------------------------------
                            837 ;	 function T6963C_calculateAddress
                            838 ;	-----------------------------------------
   023F                     839 _T6963C_calculateAddress:
   023F AA 82               840 	mov	r2,dpl
                            841 ;	../t6963c.c:169: return T6963C_ZONE_TEXTE + y * T6963C_COLONNES + x;
   0241 E5*00               842 	mov	a,_T6963C_calculateAddress_PARM_2
   0243 75 F0 1E            843 	mov	b,#0x1E
   0246 A4                  844 	mul	ab
   0247 FB                  845 	mov	r3,a
   0248 AC F0               846 	mov	r4,b
   024A 7D 00               847 	mov	r5,#0x00
   024C EA                  848 	mov	a,r2
   024D 2B                  849 	add	a,r3
   024E F5 82               850 	mov	dpl,a
   0250 ED                  851 	mov	a,r5
   0251 3C                  852 	addc	a,r4
   0252 F5 83               853 	mov	dph,a
   0254 22                  854 	ret
                            855 ;------------------------------------------------------------
                            856 ;Allocation info for local variables in function 'T6963C_writeAt'
                            857 ;------------------------------------------------------------
                            858 ;y                         Allocated with name '_T6963C_writeAt_PARM_2'
                            859 ;c                         Allocated with name '_T6963C_writeAt_PARM_3'
                            860 ;x                         Allocated to registers 
                            861 ;address                   Allocated to registers 
                            862 ;------------------------------------------------------------
                            863 ;	../t6963c.c:178: void T6963C_writeAt(unsigned char x, 
                            864 ;	-----------------------------------------
                            865 ;	 function T6963C_writeAt
                            866 ;	-----------------------------------------
   0255                     867 _T6963C_writeAt:
                            868 ;	../t6963c.c:181: unsigned int address = T6963C_calculateAddress(x, y);
   0255 85*13*00            869 	mov	_T6963C_calculateAddress_PARM_2,_T6963C_writeAt_PARM_2
   0258 12s02r3F            870 	lcall	_T6963C_calculateAddress
                            871 ;	../t6963c.c:182: T6963C_dataWrite(address, c);
   025B 85*14*08            872 	mov	_T6963C_dataWrite_PARM_2,_T6963C_writeAt_PARM_3
   025E 02s01r00            873 	ljmp	_T6963C_dataWrite
                            874 ;------------------------------------------------------------
                            875 ;Allocation info for local variables in function 'T6963C_readFrom'
                            876 ;------------------------------------------------------------
                            877 ;y                         Allocated with name '_T6963C_readFrom_PARM_2'
                            878 ;x                         Allocated to registers 
                            879 ;address                   Allocated to registers 
                            880 ;------------------------------------------------------------
                            881 ;	../t6963c.c:191: unsigned char T6963C_readFrom(unsigned char x, 
                            882 ;	-----------------------------------------
                            883 ;	 function T6963C_readFrom
                            884 ;	-----------------------------------------
   0261                     885 _T6963C_readFrom:
                            886 ;	../t6963c.c:193: unsigned int address = T6963C_calculateAddress(x, y);
   0261 85*15*00            887 	mov	_T6963C_calculateAddress_PARM_2,_T6963C_readFrom_PARM_2
   0264 12s02r3F            888 	lcall	_T6963C_calculateAddress
                            889 ;	../t6963c.c:194: return T6963C_dataRead(address);
   0267 02s01r15            890 	ljmp	_T6963C_dataRead
                            891 ;------------------------------------------------------------
                            892 ;Allocation info for local variables in function 'T6963C_initialize'
                            893 ;------------------------------------------------------------
                            894 ;------------------------------------------------------------
                            895 ;	../t6963c.c:200: void T6963C_initialize() {
                            896 ;	-----------------------------------------
                            897 ;	 function T6963C_initialize
                            898 ;	-----------------------------------------
   026A                     899 _T6963C_initialize:
                            900 ;	../t6963c.c:201: T6963C_addressCommand(0x40, T6963C_ZONE_TEXTE);
   026A E4                  901 	clr	a
   026B F5*06               902 	mov	_T6963C_addressCommand_PARM_2,a
   026D F5*07               903 	mov	(_T6963C_addressCommand_PARM_2 + 1),a
   026F 75 82 40            904 	mov	dpl,#0x40
   0272 12s00rB2            905 	lcall	_T6963C_addressCommand
                            906 ;	../t6963c.c:202: T6963C_addressCommand(0x42, T6963C_ZONE_GRAPHIQUE);
   0275 75*06 00            907 	mov	_T6963C_addressCommand_PARM_2,#0x00
   0278 75*07 02            908 	mov	(_T6963C_addressCommand_PARM_2 + 1),#0x02
   027B 75 82 42            909 	mov	dpl,#0x42
   027E 12s00rB2            910 	lcall	_T6963C_addressCommand
                            911 ;	../t6963c.c:203: T6963C_twoDataCommand(0x22, T6963C_ZONE_CG / 2048,0); 
   0281 75*04 03            912 	mov	_T6963C_twoDataCommand_PARM_2,#0x03
   0284 75*05 00            913 	mov	_T6963C_twoDataCommand_PARM_3,#0x00
   0287 75 82 22            914 	mov	dpl,#0x22
   028A 12s00r6C            915 	lcall	_T6963C_twoDataCommand
                            916 ;	../t6963c.c:204: T6963C_twoDataCommand(0x41, T6963C_COLONNES,0);
   028D 75*04 1E            917 	mov	_T6963C_twoDataCommand_PARM_2,#0x1E
   0290 75*05 00            918 	mov	_T6963C_twoDataCommand_PARM_3,#0x00
   0293 75 82 41            919 	mov	dpl,#0x41
   0296 12s00r6C            920 	lcall	_T6963C_twoDataCommand
                            921 ;	../t6963c.c:205: T6963C_twoDataCommand(0x43, T6963C_COLONNES,0);     
   0299 75*04 1E            922 	mov	_T6963C_twoDataCommand_PARM_2,#0x1E
   029C 75*05 00            923 	mov	_T6963C_twoDataCommand_PARM_3,#0x00
   029F 75 82 43            924 	mov	dpl,#0x43
   02A2 12s00r6C            925 	lcall	_T6963C_twoDataCommand
                            926 ;	../t6963c.c:208: T6963C_noDataCommand(0x9C);
   02A5 75 82 9C            927 	mov	dpl,#0x9C
   02A8 12s00r1C            928 	lcall	_T6963C_noDataCommand
                            929 ;	../t6963c.c:210: T6963C_noDataCommand(0x80);
   02AB 75 82 80            930 	mov	dpl,#0x80
   02AE 02s00r1C            931 	ljmp	_T6963C_noDataCommand
                            932 	.area CSEG    (CODE)
                            933 	.area CONST   (CODE)
                            934 	.area XINIT   (CODE)
                            935 	.area CABS    (ABS,CODE)
